; Function Attrs: mustprogress uwtable
define hidden void @_ZN6Assimp19Discreet3DSImporter12CheckIndicesERNS_4D3DS4MeshE(ptr noundef nonnull readnone align 8 captures(none) dereferenceable(168) %0, ptr noundef nonnull readonly align 8 captures(none) dereferenceable(216) %1) local_unnamed_addr #0 align 2 {
  %3 = getelementptr inbounds nuw i8, ptr %1, i64 24
  %4 = load ptr, ptr %3, align 8
  %5 = getelementptr inbounds nuw i8, ptr %1, i64 32
  %6 = load ptr, ptr %5, align 8
  %.not1921 = icmp eq ptr %4, %6
  br i1 %.not1921, label %._crit_edge, label %.preheader.lr.ph

.preheader.lr.ph:                                 ; preds = %2
  %7 = getelementptr inbounds nuw i8, ptr %1, i64 8
  %8 = getelementptr inbounds nuw i8, ptr %1, i64 104
  %9 = getelementptr inbounds nuw i8, ptr %1, i64 112
  br label %.preheader

.preheader:                                       ; preds = %.preheader.lr.ph, %10
  %.sroa.013.022 = phi ptr [ %4, %.preheader.lr.ph ], [ %11, %10 ]
  br label %13

._crit_edge:                                      ; preds = %10, %2
  ret void

10:                                               ; preds = %54
  %11 = getelementptr inbounds nuw i8, ptr %.sroa.013.022, i64 16
  %12 = load ptr, ptr %5, align 8
  %.not19 = icmp eq ptr %11, %12
  br i1 %.not19, label %._crit_edge, label %.preheader, !llvm.loop !7

13:                                               ; preds = %.preheader, %54
  %indvars.iv = phi i64 [ 0, %.preheader ], [ %indvars.iv.next, %54 ]
  %14 = getelementptr inbounds nuw [3 x i32], ptr %.sroa.013.022, i64 0, i64 %indvars.iv
  %15 = load i32, ptr %14, align 4
  %16 = zext i32 %15 to i64
  %17 = load ptr, ptr %7, align 8
  %18 = load ptr, ptr %1, align 8
  %19 = ptrtoint ptr %17 to i64
  %20 = ptrtoint ptr %18 to i64
  %21 = sub i64 %19, %20
  %22 = sdiv exact i64 %21, 12
  %.not = icmp ugt i64 %22, %16
  br i1 %.not, label %33, label %23

23:                                               ; preds = %13
  %24 = tail call noundef ptr @_ZN6Assimp13DefaultLogger3getEv()
  tail call void @_ZN6Assimp6Logger4warnEPKc(ptr noundef nonnull align 8 dereferenceable(12) %24, ptr noundef nonnull @.str.4)
  %25 = load ptr, ptr %7, align 8
  %26 = load ptr, ptr %1, align 8
  %27 = ptrtoint ptr %25 to i64
  %28 = ptrtoint ptr %26 to i64
  %29 = sub i64 %27, %28
  %30 = sdiv exact i64 %29, 12
  %31 = trunc i64 %30 to i32
  %32 = add i32 %31, -1
  store i32 %32, ptr %14, align 4
  br label %33

33:                                               ; preds = %23, %13
  %34 = phi i32 [ %32, %23 ], [ %15, %13 ]
  %35 = load ptr, ptr %8, align 8
  %36 = load ptr, ptr %9, align 8
  %37 = icmp eq ptr %35, %36
  br i1 %37, label %54, label %38

38:                                               ; preds = %33
  %39 = zext i32 %34 to i64
  %40 = ptrtoint ptr %36 to i64
  %41 = ptrtoint ptr %35 to i64
  %42 = sub i64 %40, %41
  %43 = sdiv exact i64 %42, 12
  %.not12 = icmp ugt i64 %43, %39
  br i1 %.not12, label %54, label %44

44:                                               ; preds = %38
  %45 = tail call noundef ptr @_ZN6Assimp13DefaultLogger3getEv()
  tail call void @_ZN6Assimp6Logger4warnEPKc(ptr noundef nonnull align 8 dereferenceable(12) %45, ptr noundef nonnull @.str.5)
  %46 = load ptr, ptr %9, align 8
  %47 = load ptr, ptr %8, align 8
  %48 = ptrtoint ptr %46 to i64
  %49 = ptrtoint ptr %47 to i64
  %50 = sub i64 %48, %49
  %51 = sdiv exact i64 %50, 12
  %52 = trunc i64 %51 to i32
  %53 = add i32 %52, -1
  store i32 %53, ptr %14, align 4
  br label %54

54:                                               ; preds = %33, %38, %44
  %indvars.iv.next = add nuw nsw i64 %indvars.iv, 1
  %exitcond.not = icmp eq i64 %indvars.iv.next, 3
  br i1 %exitcond.not, label %10, label %13, !llvm.loop !8
}